target datalayout = "e-m:e-p270:32:32-p271:32:32-p272:64:64-i64:64-i128:128-f80:128-n8:16:32:64-S128"
target triple = "x86_64-pc-linux-gnu"

%struct.option = type { i32, i32, ptr, ptr, ptr, ptr, i32, ptr, i64, ptr, i64, ptr }

@.str.13 = private unnamed_addr constant [10 x i8] c"on-demand\00", align 1
@.str.14 = private unnamed_addr constant [20 x i8] c"bad %s argument: %s\00", align 1

; Function Attrs: nounwind uwtable
define internal i32 @parse_fetch_recurse(ptr noundef %0, ptr noundef %1, i32 noundef %2) #0 {
  %4 = alloca i32, align 4
  %5 = alloca ptr, align 8
  %6 = alloca ptr, align 8
  %7 = alloca i32, align 4
  store ptr %0, ptr %5, align 8, !tbaa !13
  store ptr %1, ptr %6, align 8, !tbaa !13
  store i32 %2, ptr %7, align 4, !tbaa !17
  %8 = load ptr, ptr %6, align 8, !tbaa !13
  %9 = call i32 @git_parse_maybe_bool(ptr noundef %8)
  switch i32 %9, label %12 [
    i32 1, label %10
    i32 0, label %11
  ]

10:                                               ; preds = %3
  store i32 2, ptr %4, align 4
  br label %24

11:                                               ; preds = %3
  store i32 0, ptr %4, align 4
  br label %24

12:                                               ; preds = %3
  %13 = load ptr, ptr %6, align 8, !tbaa !13
  %14 = call i32 @strcmp(ptr noundef %13, ptr noundef @.str.13) #10
  %15 = icmp ne i32 %14, 0
  br i1 %15, label %17, label %16

16:                                               ; preds = %12
  store i32 -1, ptr %4, align 4
  br label %24

17:                                               ; preds = %12
  %18 = load i32, ptr %7, align 4, !tbaa !17
  %19 = icmp ne i32 %18, 0
  br i1 %19, label %20, label %23

20:                                               ; preds = %17
  %21 = load ptr, ptr %5, align 8, !tbaa !13
  %22 = load ptr, ptr %6, align 8, !tbaa !13
  call void (ptr, ...) @die(ptr noundef @.str.14, ptr noundef %21, ptr noundef %22) #11
  unreachable

23:                                               ; preds = %17
  store i32 -3, ptr %4, align 4
  br label %24

24:                                               ; preds = %23, %16, %11, %10
  %25 = load i32, ptr %4, align 4
  ret i32 %25
}

; Function Attrs: nounwind uwtable
define dso_local i32 @parse_fetch_recurse_submodules_arg(ptr noundef %0, ptr noundef %1) #0 {
  %3 = alloca ptr, align 8
  %4 = alloca ptr, align 8
  store ptr %0, ptr %3, align 8, !tbaa !13
  store ptr %1, ptr %4, align 8, !tbaa !13
  %5 = load ptr, ptr %3, align 8, !tbaa !13
  %6 = load ptr, ptr %4, align 8, !tbaa !13
  %7 = call i32 @parse_fetch_recurse(ptr noundef %5, ptr noundef %6, i32 noundef 1)
  ret i32 %7
}

; Function Attrs: nounwind uwtable
define dso_local i32 @option_fetch_parse_recurse_submodules(ptr noundef %0, ptr noundef %1, i32 noundef %2) #0 {
  %4 = alloca i32, align 4
  %5 = alloca ptr, align 8
  %6 = alloca ptr, align 8
  %7 = alloca i32, align 4
  %8 = alloca ptr, align 8
  %9 = alloca i32, align 4
  store ptr %0, ptr %5, align 8, !tbaa !23
  store ptr %1, ptr %6, align 8, !tbaa !13
  store i32 %2, ptr %7, align 4, !tbaa !17
  call void @llvm.lifetime.start.p0(i64 8, ptr %8) #9
  %10 = load ptr, ptr %5, align 8, !tbaa !23
  %11 = getelementptr inbounds nuw %struct.option, ptr %10, i32 0, i32 3
  %12 = load ptr, ptr %11, align 8, !tbaa !25
  %13 = icmp ne ptr %12, null
  br i1 %13, label %15, label %14

14:                                               ; preds = %3
  store i32 -1, ptr %4, align 4
  store i32 1, ptr %9, align 4
  br label %37

15:                                               ; preds = %3
  %16 = load ptr, ptr %5, align 8, !tbaa !23
  %17 = getelementptr inbounds nuw %struct.option, ptr %16, i32 0, i32 3
  %18 = load ptr, ptr %17, align 8, !tbaa !25
  store ptr %18, ptr %8, align 8, !tbaa !28
  %19 = load i32, ptr %7, align 4, !tbaa !17
  %20 = icmp ne i32 %19, 0
  br i1 %20, label %21, label %23

21:                                               ; preds = %15
  %22 = load ptr, ptr %8, align 8, !tbaa !28
  store i32 0, ptr %22, align 4, !tbaa !17
  br label %36

23:                                               ; preds = %15
  %24 = load ptr, ptr %6, align 8, !tbaa !13
  %25 = icmp ne ptr %24, null
  br i1 %25, label %26, label %33

26:                                               ; preds = %23
  %27 = load ptr, ptr %5, align 8, !tbaa !23
  %28 = getelementptr inbounds nuw %struct.option, ptr %27, i32 0, i32 2
  %29 = load ptr, ptr %28, align 8, !tbaa !30
  %30 = load ptr, ptr %6, align 8, !tbaa !13
  %31 = call i32 @parse_fetch_recurse_submodules_arg(ptr noundef %29, ptr noundef %30)
  %32 = load ptr, ptr %8, align 8, !tbaa !28
  store i32 %31, ptr %32, align 4, !tbaa !17
  br label %35

33:                                               ; preds = %23
  %34 = load ptr, ptr %8, align 8, !tbaa !28
  store i32 2, ptr %34, align 4, !tbaa !17
  br label %35

35:                                               ; preds = %33, %26
  br label %36

36:                                               ; preds = %35, %21
  store i32 0, ptr %4, align 4
  store i32 1, ptr %9, align 4
  br label %37

37:                                               ; preds = %36, %14
  call void @llvm.lifetime.end.p0(i64 8, ptr %8) #9
  %38 = load i32, ptr %4, align 4
  ret i32 %38
}