; Function Attrs: nounwind uwtable
define dso_local range(i32 -1, 1) i32 @option_fetch_parse_recurse_submodules(ptr noundef readonly captures(none) %0, ptr noundef %1, i32 noundef %2) local_unnamed_addr #0 {
  %4 = getelementptr inbounds nuw i8, ptr %0, i64 16
  %5 = load ptr, ptr %4, align 8, !tbaa !27
  %.not = icmp eq ptr %5, null
  br i1 %.not, label %16, label %6

6:                                                ; preds = %3
  %.not11 = icmp eq i32 %2, 0
  br i1 %.not11, label %7, label %.sink.split

7:                                                ; preds = %6
  %.not12 = icmp eq ptr %1, null
  br i1 %.not12, label %.sink.split, label %8

8:                                                ; preds = %7
  %9 = getelementptr inbounds nuw i8, ptr %0, i64 8
  %10 = load ptr, ptr %9, align 8, !tbaa !30
  %11 = tail call i32 @git_parse_maybe_bool(ptr noundef nonnull %1) #15
  switch i32 %11, label %13 [
    i32 1, label %.sink.split
    i32 0, label %12
  ]

12:                                               ; preds = %8
  br label %.sink.split

13:                                               ; preds = %8
  %14 = tail call i32 @strcmp(ptr noundef nonnull dereferenceable(1) %1, ptr noundef nonnull dereferenceable(10) @.str.13) #16
  %.not.i.i = icmp eq i32 %14, 0
  br i1 %.not.i.i, label %.sink.split, label %15

15:                                               ; preds = %13
  tail call void (ptr, ...) @die(ptr noundef nonnull @.str.14, ptr noundef %10, ptr noundef nonnull %1) #17
  unreachable

.sink.split:                                      ; preds = %7, %13, %12, %8, %6
  %.sink = phi i32 [ 0, %6 ], [ 0, %12 ], [ 2, %8 ], [ -1, %13 ], [ 2, %7 ]
  store i32 %.sink, ptr %5, align 4, !tbaa !26
  br label %16

16:                                               ; preds = %.sink.split, %3
  %.0 = phi i32 [ -1, %3 ], [ 0, %.sink.split ]
  ret i32 %.0
}